; ModuleID = 'source-C-CXX/42/1270.cpp'
source_filename = "source-C-CXX/42/1270.cpp"
target datalayout = "e-m:e-p270:32:32-p271:32:32-p272:64:64-i64:64-f80:128-n8:16:32:64-S128"
target triple = "x86_64-pc-linux-gnu"

%"class.std::ios_base::Init" = type { i8 }
%"class.std::basic_istream" = type { i32 (...)**, i64, %"class.std::basic_ios" }
%"class.std::basic_ios" = type { %"class.std::ios_base", %"class.std::basic_ostream"*, i8, i8, %"class.std::basic_streambuf"*, %"class.std::ctype"*, %"class.std::num_put"*, %"class.std::num_get"* }
%"class.std::ios_base" = type { i32 (...)**, i64, i64, i32, i32, i32, %"struct.std::ios_base::_Callback_list"*, %"struct.std::ios_base::_Words", [8 x %"struct.std::ios_base::_Words"], i32, %"struct.std::ios_base::_Words"*, %"class.std::locale" }
%"struct.std::ios_base::_Callback_list" = type { %"struct.std::ios_base::_Callback_list"*, void (i32, %"class.std::ios_base"*, i32)*, i32, i32 }
%"struct.std::ios_base::_Words" = type { i8*, i64 }
%"class.std::locale" = type { %"class.std::locale::_Impl"* }
%"class.std::locale::_Impl" = type { i32, %"class.std::locale::facet"**, i64, %"class.std::locale::facet"**, i8** }
%"class.std::locale::facet" = type <{ i32 (...)**, i32, [4 x i8] }>
%"class.std::basic_ostream" = type { i32 (...)**, %"class.std::basic_ios" }
%"class.std::basic_streambuf" = type { i32 (...)**, i8*, i8*, i8*, i8*, i8*, i8*, %"class.std::locale" }
%"class.std::ctype" = type <{ %"class.std::locale::facet.base", [4 x i8], %struct.__locale_struct*, i8, [7 x i8], i32*, i32*, i16*, i8, [256 x i8], [256 x i8], i8, [6 x i8] }>
%"class.std::locale::facet.base" = type <{ i32 (...)**, i32 }>
%struct.__locale_struct = type { [13 x %struct.__locale_data*], i16*, i32*, i32*, [13 x i8*] }
%struct.__locale_data = type opaque
%"class.std::num_put" = type { %"class.std::locale::facet.base", [4 x i8] }
%"class.std::num_get" = type { %"class.std::locale::facet.base", [4 x i8] }

@_ZStL8__ioinit = internal global %"class.std::ios_base::Init" zeroinitializer, align 1
@__dso_handle = external hidden global i8
@_ZSt3cin = external global %"class.std::basic_istream", align 8
@_ZSt4cout = external global %"class.std::basic_ostream", align 8
@.str = private unnamed_addr constant [2 x i8] c" \00", align 1
@llvm.global_ctors = appending global [1 x { i32, void ()*, i8* }] [{ i32, void ()*, i8* } { i32 65535, void ()* @_GLOBAL__sub_I_1270.cpp, i8* null }]

declare void @_ZNSt8ios_base4InitC1Ev(%"class.std::ios_base::Init"* nonnull align 1 dereferenceable(1)) unnamed_addr #0

; Function Attrs: nounwind
declare void @_ZNSt8ios_base4InitD1Ev(%"class.std::ios_base::Init"* nonnull align 1 dereferenceable(1)) unnamed_addr #1

; Function Attrs: nofree nounwind
declare i32 @__cxa_atexit(void (i8*)*, i8*, i8*) local_unnamed_addr #2

; Function Attrs: mustprogress nofree nounwind sspstrong uwtable
define dso_local i32 @_Z5judgei(i32 %0) local_unnamed_addr #3 {
  %2 = sitofp i32 %0 to double
  %3 = tail call double @sqrt(double %2) #9
  %4 = fptosi double %3 to i32
  %5 = icmp slt i32 %4, 2
  br i1 %5, label %25, label %6

6:                                                ; preds = %1
  %7 = add i32 %4, -1
  %8 = and i32 %7, 1
  %9 = icmp eq i32 %4, 2
  br i1 %9, label %12, label %10

10:                                               ; preds = %6
  %11 = and i32 %7, -2
  br label %27

12:                                               ; preds = %27, %6
  %13 = phi i32 [ undef, %6 ], [ %37, %27 ]
  %14 = phi i32 [ 2, %6 ], [ %38, %27 ]
  %15 = phi i32 [ 0, %6 ], [ %37, %27 ]
  %16 = icmp eq i32 %8, 0
  br i1 %16, label %21, label %17

17:                                               ; preds = %12
  %18 = srem i32 %0, %14
  %19 = icmp eq i32 %18, 0
  %20 = select i1 %19, i32 1, i32 %15
  br label %21

21:                                               ; preds = %12, %17
  %22 = phi i32 [ %13, %12 ], [ %20, %17 ]
  %23 = icmp eq i32 %22, 0
  %24 = zext i1 %23 to i32
  br label %25

25:                                               ; preds = %21, %1
  %26 = phi i32 [ 1, %1 ], [ %24, %21 ]
  ret i32 %26

27:                                               ; preds = %27, %10
  %28 = phi i32 [ 2, %10 ], [ %38, %27 ]
  %29 = phi i32 [ 0, %10 ], [ %37, %27 ]
  %30 = phi i32 [ %11, %10 ], [ %39, %27 ]
  %31 = srem i32 %0, %28
  %32 = icmp eq i32 %31, 0
  %33 = or i32 %28, 1
  %34 = srem i32 %0, %33
  %35 = icmp eq i32 %34, 0
  %36 = select i1 %35, i1 true, i1 %32
  %37 = select i1 %36, i32 1, i32 %29
  %38 = add nuw i32 %28, 2
  %39 = add i32 %30, -2
  %40 = icmp eq i32 %39, 0
  br i1 %40, label %12, label %27, !llvm.loop !5
}

; Function Attrs: argmemonly mustprogress nofree nosync nounwind willreturn
declare void @llvm.lifetime.start.p0i8(i64 immarg, i8* nocapture) #4

; Function Attrs: argmemonly mustprogress nofree nosync nounwind willreturn
declare void @llvm.lifetime.end.p0i8(i64 immarg, i8* nocapture) #4

; Function Attrs: mustprogress norecurse sspstrong uwtable
define dso_local i32 @main() local_unnamed_addr #5 {
  %1 = alloca i32, align 4
  %2 = bitcast i32* %1 to i8*
  call void @llvm.lifetime.start.p0i8(i64 4, i8* nonnull %2) #9
  %3 = call nonnull align 8 dereferenceable(16) %"class.std::basic_istream"* @_ZNSirsERi(%"class.std::basic_istream"* nonnull align 8 dereferenceable(16) @_ZSt3cin, i32* nonnull align 4 dereferenceable(4) %1)
  %4 = load i32, i32* %1, align 4, !tbaa !7
  %5 = icmp slt i32 %4, 6
  br i1 %5, label %6, label %7

6:                                                ; preds = %119, %0
  call void @llvm.lifetime.end.p0i8(i64 4, i8* nonnull %2) #9
  ret i32 0

7:                                                ; preds = %0, %119
  %8 = phi i32 [ %120, %119 ], [ 3, %0 ]
  %9 = sitofp i32 %8 to double
  %10 = call double @sqrt(double %9) #9
  %11 = fptosi double %10 to i32
  %12 = icmp slt i32 %11, 2
  br i1 %12, label %45, label %13

13:                                               ; preds = %7
  %14 = add i32 %11, -1
  %15 = and i32 %14, 1
  %16 = icmp eq i32 %11, 2
  br i1 %16, label %33, label %17

17:                                               ; preds = %13
  %18 = and i32 %14, -2
  br label %19

19:                                               ; preds = %19, %17
  %20 = phi i32 [ 2, %17 ], [ %30, %19 ]
  %21 = phi i32 [ 0, %17 ], [ %29, %19 ]
  %22 = phi i32 [ %18, %17 ], [ %31, %19 ]
  %23 = urem i32 %8, %20
  %24 = icmp eq i32 %23, 0
  %25 = or i32 %20, 1
  %26 = urem i32 %8, %25
  %27 = icmp eq i32 %26, 0
  %28 = select i1 %27, i1 true, i1 %24
  %29 = select i1 %28, i32 1, i32 %21
  %30 = add nuw i32 %20, 2
  %31 = add i32 %22, -2
  %32 = icmp eq i32 %31, 0
  br i1 %32, label %33, label %19, !llvm.loop !5

33:                                               ; preds = %19, %13
  %34 = phi i32 [ undef, %13 ], [ %29, %19 ]
  %35 = phi i32 [ 2, %13 ], [ %30, %19 ]
  %36 = phi i32 [ 0, %13 ], [ %29, %19 ]
  %37 = icmp eq i32 %15, 0
  br i1 %37, label %42, label %38

38:                                               ; preds = %33
  %39 = urem i32 %8, %35
  %40 = icmp eq i32 %39, 0
  %41 = select i1 %40, i32 1, i32 %36
  br label %42

42:                                               ; preds = %33, %38
  %43 = phi i32 [ %34, %33 ], [ %41, %38 ]
  %44 = icmp eq i32 %43, 0
  br i1 %44, label %45, label %119

45:                                               ; preds = %7, %42
  %46 = load i32, i32* %1, align 4, !tbaa !7
  %47 = sub nsw i32 %46, %8
  %48 = sitofp i32 %47 to double
  %49 = call double @sqrt(double %48) #9
  %50 = fptosi double %49 to i32
  %51 = icmp slt i32 %50, 2
  br i1 %51, label %84, label %52

52:                                               ; preds = %45
  %53 = add i32 %50, -1
  %54 = and i32 %53, 1
  %55 = icmp eq i32 %50, 2
  br i1 %55, label %72, label %56

56:                                               ; preds = %52
  %57 = and i32 %53, -2
  br label %58

58:                                               ; preds = %58, %56
  %59 = phi i32 [ 2, %56 ], [ %69, %58 ]
  %60 = phi i32 [ 0, %56 ], [ %68, %58 ]
  %61 = phi i32 [ %57, %56 ], [ %70, %58 ]
  %62 = srem i32 %47, %59
  %63 = icmp eq i32 %62, 0
  %64 = or i32 %59, 1
  %65 = srem i32 %47, %64
  %66 = icmp eq i32 %65, 0
  %67 = select i1 %66, i1 true, i1 %63
  %68 = select i1 %67, i32 1, i32 %60
  %69 = add nuw i32 %59, 2
  %70 = add i32 %61, -2
  %71 = icmp eq i32 %70, 0
  br i1 %71, label %72, label %58, !llvm.loop !5

72:                                               ; preds = %58, %52
  %73 = phi i32 [ undef, %52 ], [ %68, %58 ]
  %74 = phi i32 [ 2, %52 ], [ %69, %58 ]
  %75 = phi i32 [ 0, %52 ], [ %68, %58 ]
  %76 = icmp eq i32 %54, 0
  br i1 %76, label %81, label %77

77:                                               ; preds = %72
  %78 = srem i32 %47, %74
  %79 = icmp eq i32 %78, 0
  %80 = select i1 %79, i32 1, i32 %75
  br label %81

81:                                               ; preds = %72, %77
  %82 = phi i32 [ %73, %72 ], [ %80, %77 ]
  %83 = icmp eq i32 %82, 0
  br i1 %83, label %84, label %119

84:                                               ; preds = %45, %81
  %85 = call nonnull align 8 dereferenceable(8) %"class.std::basic_ostream"* @_ZNSolsEi(%"class.std::basic_ostream"* nonnull align 8 dereferenceable(8) @_ZSt4cout, i32 %8)
  %86 = call nonnull align 8 dereferenceable(8) %"class.std::basic_ostream"* @_ZSt16__ostream_insertIcSt11char_traitsIcEERSt13basic_ostreamIT_T0_ES6_PKS3_l(%"class.std::basic_ostream"* nonnull align 8 dereferenceable(8) %85, i8* nonnull getelementptr inbounds ([2 x i8], [2 x i8]* @.str, i64 0, i64 0), i64 1)
  %87 = load i32, i32* %1, align 4, !tbaa !7
  %88 = sub nsw i32 %87, %8
  %89 = call nonnull align 8 dereferenceable(8) %"class.std::basic_ostream"* @_ZNSolsEi(%"class.std::basic_ostream"* nonnull align 8 dereferenceable(8) %85, i32 %88)
  %90 = bitcast %"class.std::basic_ostream"* %89 to i8**
  %91 = load i8*, i8** %90, align 8, !tbaa !11
  %92 = getelementptr i8, i8* %91, i64 -24
  %93 = bitcast i8* %92 to i64*
  %94 = load i64, i64* %93, align 8
  %95 = bitcast %"class.std::basic_ostream"* %89 to i8*
  %96 = add nsw i64 %94, 240
  %97 = getelementptr inbounds i8, i8* %95, i64 %96
  %98 = bitcast i8* %97 to %"class.std::ctype"**
  %99 = load %"class.std::ctype"*, %"class.std::ctype"** %98, align 8, !tbaa !13
  %100 = icmp eq %"class.std::ctype"* %99, null
  br i1 %100, label %101, label %102

101:                                              ; preds = %84
  call void @_ZSt16__throw_bad_castv() #10
  unreachable

102:                                              ; preds = %84
  %103 = getelementptr inbounds %"class.std::ctype", %"class.std::ctype"* %99, i64 0, i32 8
  %104 = load i8, i8* %103, align 8, !tbaa !17
  %105 = icmp eq i8 %104, 0
  br i1 %105, label %109, label %106

106:                                              ; preds = %102
  %107 = getelementptr inbounds %"class.std::ctype", %"class.std::ctype"* %99, i64 0, i32 9, i64 10
  %108 = load i8, i8* %107, align 1, !tbaa !19
  br label %115

109:                                              ; preds = %102
  call void @_ZNKSt5ctypeIcE13_M_widen_initEv(%"class.std::ctype"* nonnull align 8 dereferenceable(570) %99)
  %110 = bitcast %"class.std::ctype"* %99 to i8 (%"class.std::ctype"*, i8)***
  %111 = load i8 (%"class.std::ctype"*, i8)**, i8 (%"class.std::ctype"*, i8)*** %110, align 8, !tbaa !11
  %112 = getelementptr inbounds i8 (%"class.std::ctype"*, i8)*, i8 (%"class.std::ctype"*, i8)** %111, i64 6
  %113 = load i8 (%"class.std::ctype"*, i8)*, i8 (%"class.std::ctype"*, i8)** %112, align 8
  %114 = call signext i8 %113(%"class.std::ctype"* nonnull align 8 dereferenceable(570) %99, i8 signext 10)
  br label %115

115:                                              ; preds = %106, %109
  %116 = phi i8 [ %108, %106 ], [ %114, %109 ]
  %117 = call nonnull align 8 dereferenceable(8) %"class.std::basic_ostream"* @_ZNSo3putEc(%"class.std::basic_ostream"* nonnull align 8 dereferenceable(8) %89, i8 signext %116)
  %118 = call nonnull align 8 dereferenceable(8) %"class.std::basic_ostream"* @_ZNSo5flushEv(%"class.std::basic_ostream"* nonnull align 8 dereferenceable(8) %117)
  br label %119

119:                                              ; preds = %42, %81, %115
  %120 = add nuw nsw i32 %8, 2
  %121 = load i32, i32* %1, align 4, !tbaa !7
  %122 = sdiv i32 %121, 2
  %123 = icmp sgt i32 %120, %122
  br i1 %123, label %6, label %7, !llvm.loop !20
}

declare nonnull align 8 dereferenceable(16) %"class.std::basic_istream"* @_ZNSirsERi(%"class.std::basic_istream"* nonnull align 8 dereferenceable(16), i32* nonnull align 4 dereferenceable(4)) local_unnamed_addr #0

declare nonnull align 8 dereferenceable(8) %"class.std::basic_ostream"* @_ZNSolsEi(%"class.std::basic_ostream"* nonnull align 8 dereferenceable(8), i32) local_unnamed_addr #0

; Function Attrs: mustprogress nofree nounwind willreturn
declare double @sqrt(double) local_unnamed_addr #6

declare nonnull align 8 dereferenceable(8) %"class.std::basic_ostream"* @_ZSt16__ostream_insertIcSt11char_traitsIcEERSt13basic_ostreamIT_T0_ES6_PKS3_l(%"class.std::basic_ostream"* nonnull align 8 dereferenceable(8), i8*, i64) local_unnamed_addr #0

declare nonnull align 8 dereferenceable(8) %"class.std::basic_ostream"* @_ZNSo3putEc(%"class.std::basic_ostream"* nonnull align 8 dereferenceable(8), i8 signext) local_unnamed_addr #0

declare nonnull align 8 dereferenceable(8) %"class.std::basic_ostream"* @_ZNSo5flushEv(%"class.std::basic_ostream"* nonnull align 8 dereferenceable(8)) local_unnamed_addr #0

; Function Attrs: noreturn
declare void @_ZSt16__throw_bad_castv() local_unnamed_addr #7

declare void @_ZNKSt5ctypeIcE13_M_widen_initEv(%"class.std::ctype"* nonnull align 8 dereferenceable(570)) local_unnamed_addr #0

; Function Attrs: sspstrong uwtable
define internal void @_GLOBAL__sub_I_1270.cpp() #8 section ".text.startup" {
  tail call void @_ZNSt8ios_base4InitC1Ev(%"class.std::ios_base::Init"* nonnull align 1 dereferenceable(1) @_ZStL8__ioinit)
  %1 = tail call i32 @__cxa_atexit(void (i8*)* bitcast (void (%"class.std::ios_base::Init"*)* @_ZNSt8ios_base4InitD1Ev to void (i8*)*), i8* getelementptr inbounds (%"class.std::ios_base::Init", %"class.std::ios_base::Init"* @_ZStL8__ioinit, i64 0, i32 0), i8* nonnull @__dso_handle) #9
  ret void
}


!llvm.module.flags = !{!0, !1, !2, !3}
!llvm.ident = !{!4}

!0 = !{i32 1, !"wchar_size", i32 4}
!1 = !{i32 7, !"PIC Level", i32 2}
!2 = !{i32 7, !"PIE Level", i32 2}
!3 = !{i32 7, !"uwtable", i32 1}
!4 = !{!"clang version 13.0.0"}
!5 = distinct !{!5, !6}
!6 = !{!"llvm.loop.mustprogress"}
!7 = !{!8, !8, i64 0}
!8 = !{!"int", !9, i64 0}
!9 = !{!"omnipotent char", !10, i64 0}
!10 = !{!"Simple C++ TBAA"}
!11 = !{!12, !12, i64 0}
!12 = !{!"vtable pointer", !10, i64 0}
!13 = !{!14, !15, i64 240}
!14 = !{!"_ZTSSt9basic_iosIcSt11char_traitsIcEE", !15, i64 216, !9, i64 224, !16, i64 225, !15, i64 232, !15, i64 240, !15, i64 248, !15, i64 256}
!15 = !{!"any pointer", !9, i64 0}
!16 = !{!"bool", !9, i64 0}
!17 = !{!18, !9, i64 56}
!18 = !{!"_ZTSSt5ctypeIcE", !15, i64 16, !16, i64 24, !15, i64 32, !15, i64 40, !15, i64 48, !9, i64 56, !9, i64 57, !9, i64 313, !9, i64 569}
!19 = !{!9, !9, i64 0}
!20 = distinct !{!20, !6}
